target datalayout = "e-m:e-p270:32:32-p271:32:32-p272:64:64-i64:64-i128:128-f80:128-n8:16:32:64-S128"
target triple = "x86_64-pc-linux-gnu"

%struct.ossl_quic_frame_crypto_st = type { i64, i64, ptr }

; Function Attrs: nounwind uwtable
define internal i32 @encode_frame_hdr(ptr noundef %0, i64 noundef %1) #0 {
  %3 = alloca ptr, align 8
  %4 = alloca i64, align 8
  store ptr %0, ptr %3, align 8, !tbaa !21
  store i64 %1, ptr %4, align 8, !tbaa !8
  %5 = load ptr, ptr %3, align 8, !tbaa !21
  %6 = load i64, ptr %4, align 8, !tbaa !8
  %7 = call i32 @WPACKET_quic_write_vlint(ptr noundef %5, i64 noundef %6)
  ret i32 %7
}

; Function Attrs: nounwind uwtable
define i32 @ossl_quic_wire_encode_frame_crypto_hdr(ptr noundef %0, ptr noundef %1) #0 {
  %3 = alloca i32, align 4
  %4 = alloca ptr, align 8
  %5 = alloca ptr, align 8
  store ptr %0, ptr %4, align 8, !tbaa !21
  store ptr %1, ptr %5, align 8, !tbaa !41
  %6 = load ptr, ptr %4, align 8, !tbaa !21
  %7 = call i32 @encode_frame_hdr(ptr noundef %6, i64 noundef 6)
  %8 = icmp ne i32 %7, 0
  br i1 %8, label %9, label %23

9:                                                ; preds = %2
  %10 = load ptr, ptr %4, align 8, !tbaa !21
  %11 = load ptr, ptr %5, align 8, !tbaa !41
  %12 = getelementptr inbounds nuw %struct.ossl_quic_frame_crypto_st, ptr %11, i32 0, i32 0
  %13 = load i64, ptr %12, align 8, !tbaa !43
  %14 = call i32 @WPACKET_quic_write_vlint(ptr noundef %10, i64 noundef %13)
  %15 = icmp ne i32 %14, 0
  br i1 %15, label %16, label %23

16:                                               ; preds = %9
  %17 = load ptr, ptr %4, align 8, !tbaa !21
  %18 = load ptr, ptr %5, align 8, !tbaa !41
  %19 = getelementptr inbounds nuw %struct.ossl_quic_frame_crypto_st, ptr %18, i32 0, i32 1
  %20 = load i64, ptr %19, align 8, !tbaa !46
  %21 = call i32 @WPACKET_quic_write_vlint(ptr noundef %17, i64 noundef %20)
  %22 = icmp ne i32 %21, 0
  br i1 %22, label %24, label %23

23:                                               ; preds = %16, %9, %2
  store i32 0, ptr %3, align 4
  br label %25

24:                                               ; preds = %16
  store i32 1, ptr %3, align 4
  br label %25

25:                                               ; preds = %24, %23
  %26 = load i32, ptr %3, align 4
  ret i32 %26
}

; Function Attrs: nounwind uwtable
define ptr @ossl_quic_wire_encode_frame_crypto(ptr noundef %0, ptr noundef %1) #0 {
  %3 = alloca ptr, align 8
  %4 = alloca ptr, align 8
  %5 = alloca ptr, align 8
  %6 = alloca ptr, align 8
  %7 = alloca i32, align 4
  store ptr %0, ptr %4, align 8, !tbaa !21
  store ptr %1, ptr %5, align 8, !tbaa !41
  call void @llvm.lifetime.start.p0(i64 8, ptr %6) #7
  store ptr null, ptr %6, align 8, !tbaa !47
  %8 = load ptr, ptr %4, align 8, !tbaa !21
  %9 = load ptr, ptr %5, align 8, !tbaa !41
  %10 = call i32 @ossl_quic_wire_encode_frame_crypto_hdr(ptr noundef %8, ptr noundef %9)
  %11 = icmp ne i32 %10, 0
  br i1 %11, label %12, label %24

12:                                               ; preds = %2
  %13 = load ptr, ptr %5, align 8, !tbaa !41
  %14 = getelementptr inbounds nuw %struct.ossl_quic_frame_crypto_st, ptr %13, i32 0, i32 1
  %15 = load i64, ptr %14, align 8, !tbaa !46
  %16 = icmp ugt i64 %15, -1
  br i1 %16, label %24, label %17

17:                                               ; preds = %12
  %18 = load ptr, ptr %4, align 8, !tbaa !21
  %19 = load ptr, ptr %5, align 8, !tbaa !41
  %20 = getelementptr inbounds nuw %struct.ossl_quic_frame_crypto_st, ptr %19, i32 0, i32 1
  %21 = load i64, ptr %20, align 8, !tbaa !46
  %22 = call i32 @WPACKET_allocate_bytes(ptr noundef %18, i64 noundef %21, ptr noundef %6)
  %23 = icmp ne i32 %22, 0
  br i1 %23, label %25, label %24

24:                                               ; preds = %17, %12, %2
  store ptr null, ptr %3, align 8
  store i32 1, ptr %7, align 4
  br label %40

25:                                               ; preds = %17
  %26 = load ptr, ptr %5, align 8, !tbaa !41
  %27 = getelementptr inbounds nuw %struct.ossl_quic_frame_crypto_st, ptr %26, i32 0, i32 2
  %28 = load ptr, ptr %27, align 8, !tbaa !48
  %29 = icmp ne ptr %28, null
  br i1 %29, label %30, label %38

30:                                               ; preds = %25
  %31 = load ptr, ptr %6, align 8, !tbaa !47
  %32 = load ptr, ptr %5, align 8, !tbaa !41
  %33 = getelementptr inbounds nuw %struct.ossl_quic_frame_crypto_st, ptr %32, i32 0, i32 2
  %34 = load ptr, ptr %33, align 8, !tbaa !48
  %35 = load ptr, ptr %5, align 8, !tbaa !41
  %36 = getelementptr inbounds nuw %struct.ossl_quic_frame_crypto_st, ptr %35, i32 0, i32 1
  %37 = load i64, ptr %36, align 8, !tbaa !46
  call void @llvm.memcpy.p0.p0.i64(ptr align 1 %31, ptr align 1 %34, i64 %37, i1 false)
  br label %38

38:                                               ; preds = %30, %25
  %39 = load ptr, ptr %6, align 8, !tbaa !47
  store ptr %39, ptr %3, align 8
  store i32 1, ptr %7, align 4
  br label %40

40:                                               ; preds = %38, %24
  call void @llvm.lifetime.end.p0(i64 8, ptr %6) #7
  %41 = load ptr, ptr %3, align 8
  ret ptr %41
}