; Function Attrs: nounwind uwtable
define ptr @ossl_quic_wire_encode_frame_crypto(ptr noundef %0, ptr noundef readonly captures(none) %1) local_unnamed_addr #2 {
  %3 = alloca ptr, align 8
  call void @llvm.lifetime.start.p0(i64 8, ptr nonnull %3) #12
  store ptr null, ptr %3, align 8, !tbaa !33
  %4 = tail call i32 @WPACKET_quic_write_vlint(ptr noundef %0, i64 noundef 6) #12
  %.not.i = icmp eq i32 %4, 0
  br i1 %.not.i, label %ossl_quic_wire_encode_frame_crypto_hdr.exit.thread, label %5

5:                                                ; preds = %2
  %6 = load i64, ptr %1, align 8, !tbaa !29
  %7 = tail call i32 @WPACKET_quic_write_vlint(ptr noundef %0, i64 noundef %6) #12
  %.not5.i = icmp eq i32 %7, 0
  br i1 %.not5.i, label %ossl_quic_wire_encode_frame_crypto_hdr.exit.thread, label %ossl_quic_wire_encode_frame_crypto_hdr.exit

ossl_quic_wire_encode_frame_crypto_hdr.exit:      ; preds = %5
  %8 = getelementptr inbounds nuw i8, ptr %1, i64 8
  %9 = load i64, ptr %8, align 8, !tbaa !32
  %10 = tail call i32 @WPACKET_quic_write_vlint(ptr noundef %0, i64 noundef %9) #12
  %.not6.i.not = icmp eq i32 %10, 0
  br i1 %.not6.i.not, label %ossl_quic_wire_encode_frame_crypto_hdr.exit.thread, label %11

11:                                               ; preds = %ossl_quic_wire_encode_frame_crypto_hdr.exit
  %12 = load i64, ptr %8, align 8, !tbaa !32
  %13 = call i32 @WPACKET_allocate_bytes(ptr noundef %0, i64 noundef %12, ptr noundef nonnull %3) #12
  %.not10 = icmp eq i32 %13, 0
  br i1 %.not10, label %ossl_quic_wire_encode_frame_crypto_hdr.exit.thread, label %14

14:                                               ; preds = %11
  %15 = getelementptr inbounds nuw i8, ptr %1, i64 16
  %16 = load ptr, ptr %15, align 8, !tbaa !34
  %.not11 = icmp eq ptr %16, null
  br i1 %.not11, label %20, label %17

17:                                               ; preds = %14
  %18 = load ptr, ptr %3, align 8, !tbaa !33
  %19 = load i64, ptr %8, align 8, !tbaa !32
  call void @llvm.memcpy.p0.p0.i64(ptr align 1 %18, ptr nonnull align 1 %16, i64 %19, i1 false)
  br label %20

20:                                               ; preds = %17, %14
  %21 = load ptr, ptr %3, align 8, !tbaa !33
  br label %ossl_quic_wire_encode_frame_crypto_hdr.exit.thread

ossl_quic_wire_encode_frame_crypto_hdr.exit.thread: ; preds = %2, %5, %ossl_quic_wire_encode_frame_crypto_hdr.exit, %11, %20
  %.0 = phi ptr [ %21, %20 ], [ null, %11 ], [ null, %ossl_quic_wire_encode_frame_crypto_hdr.exit ], [ null, %5 ], [ null, %2 ]
  call void @llvm.lifetime.end.p0(i64 8, ptr nonnull %3) #12
  ret ptr %.0
}